target datalayout = "e-m:e-p270:32:32-p271:32:32-p272:64:64-i64:64-i128:128-f80:128-n8:16:32:64-S128"
target triple = "x86_64-pc-linux-gnu"

%class.G1EvacStats = type { %class.PLABStats, i64, i64, %class.AdaptiveWeightedAverage, i64, i32, i64, i64, i64, i64, i64 }
%class.PLABStats = type { ptr, ptr, i64, i64, i64, i64 }
%class.AdaptiveWeightedAverage = type { float, i32, i32, i8, float }
%class.G1EvacSummary = type { i64, i64, i64, i64, i64, i64, i32, i64, i64, i64, i64, i64 }

; Function Attrs: mustprogress nounwind uwtable
define linkonce_odr hidden void @_ZN13G1EvacSummaryC2Emmmmmmjmmmmm(ptr noundef nonnull align 8 dereferenceable(96) %0, i64 noundef %1, i64 noundef %2, i64 noundef %3, i64 noundef %4, i64 noundef %5, i64 noundef %6, i32 noundef %7, i64 noundef %8, i64 noundef %9, i64 noundef %10, i64 noundef %11, i64 noundef %12) unnamed_addr #1 comdat align 2 {
  %14 = alloca ptr, align 8
  %15 = alloca i64, align 8
  %16 = alloca i64, align 8
  %17 = alloca i64, align 8
  %18 = alloca i64, align 8
  %19 = alloca i64, align 8
  %20 = alloca i64, align 8
  %21 = alloca i32, align 4
  %22 = alloca i64, align 8
  %23 = alloca i64, align 8
  %24 = alloca i64, align 8
  %25 = alloca i64, align 8
  %26 = alloca i64, align 8
  store ptr %0, ptr %14, align 8
  store i64 %1, ptr %15, align 8
  store i64 %2, ptr %16, align 8
  store i64 %3, ptr %17, align 8
  store i64 %4, ptr %18, align 8
  store i64 %5, ptr %19, align 8
  store i64 %6, ptr %20, align 8
  store i32 %7, ptr %21, align 4
  store i64 %8, ptr %22, align 8
  store i64 %9, ptr %23, align 8
  store i64 %10, ptr %24, align 8
  store i64 %11, ptr %25, align 8
  store i64 %12, ptr %26, align 8
  %27 = load ptr, ptr %14, align 8
  %28 = getelementptr inbounds %class.G1EvacSummary, ptr %27, i32 0, i32 0
  %29 = load i64, ptr %15, align 8
  store i64 %29, ptr %28, align 8
  %30 = getelementptr inbounds %class.G1EvacSummary, ptr %27, i32 0, i32 1
  %31 = load i64, ptr %16, align 8
  store i64 %31, ptr %30, align 8
  %32 = getelementptr inbounds %class.G1EvacSummary, ptr %27, i32 0, i32 2
  %33 = load i64, ptr %17, align 8
  store i64 %33, ptr %32, align 8
  %34 = getelementptr inbounds %class.G1EvacSummary, ptr %27, i32 0, i32 3
  %35 = load i64, ptr %18, align 8
  store i64 %35, ptr %34, align 8
  %36 = getelementptr inbounds %class.G1EvacSummary, ptr %27, i32 0, i32 4
  %37 = load i64, ptr %19, align 8
  store i64 %37, ptr %36, align 8
  %38 = getelementptr inbounds %class.G1EvacSummary, ptr %27, i32 0, i32 5
  %39 = load i64, ptr %20, align 8
  store i64 %39, ptr %38, align 8
  %40 = getelementptr inbounds %class.G1EvacSummary, ptr %27, i32 0, i32 6
  %41 = load i32, ptr %21, align 4
  store i32 %41, ptr %40, align 8
  %42 = getelementptr inbounds %class.G1EvacSummary, ptr %27, i32 0, i32 7
  %43 = load i64, ptr %22, align 8
  store i64 %43, ptr %42, align 8
  %44 = getelementptr inbounds %class.G1EvacSummary, ptr %27, i32 0, i32 8
  %45 = load i64, ptr %23, align 8
  store i64 %45, ptr %44, align 8
  %46 = getelementptr inbounds %class.G1EvacSummary, ptr %27, i32 0, i32 9
  %47 = load i64, ptr %24, align 8
  store i64 %47, ptr %46, align 8
  %48 = getelementptr inbounds %class.G1EvacSummary, ptr %27, i32 0, i32 10
  %49 = load i64, ptr %25, align 8
  store i64 %49, ptr %48, align 8
  %50 = getelementptr inbounds %class.G1EvacSummary, ptr %27, i32 0, i32 11
  %51 = load i64, ptr %26, align 8
  store i64 %51, ptr %50, align 8
  ret void
}

; Function Attrs: mustprogress nounwind uwtable
define linkonce_odr hidden noundef i64 @_ZNK11G1EvacStats13failure_wasteEv(ptr noundef nonnull align 8 dereferenceable(144) %0) #1 comdat align 2 {
  %2 = alloca ptr, align 8
  store ptr %0, ptr %2, align 8
  %3 = load ptr, ptr %2, align 8
  %4 = getelementptr inbounds %class.G1EvacStats, ptr %3, i32 0, i32 10
  %5 = load i64, ptr %4, align 8
  ret i64 %5
}

; Function Attrs: mustprogress nounwind uwtable
define linkonce_odr hidden noundef i64 @_ZNK11G1EvacStats12failure_usedEv(ptr noundef nonnull align 8 dereferenceable(144) %0) #1 comdat align 2 {
  %2 = alloca ptr, align 8
  store ptr %0, ptr %2, align 8
  %3 = load ptr, ptr %2, align 8
  %4 = getelementptr inbounds %class.G1EvacStats, ptr %3, i32 0, i32 9
  %5 = load i64, ptr %4, align 8
  ret i64 %5
}

; Function Attrs: mustprogress nounwind uwtable
define linkonce_odr hidden noundef i64 @_ZNK11G1EvacStats20num_direct_allocatedEv(ptr noundef nonnull align 8 dereferenceable(144) %0) #1 comdat align 2 {
  %2 = alloca ptr, align 8
  store ptr %0, ptr %2, align 8
  %3 = load ptr, ptr %2, align 8
  %4 = getelementptr inbounds %class.G1EvacStats, ptr %3, i32 0, i32 8
  %5 = load i64, ptr %4, align 8
  ret i64 %5
}

; Function Attrs: mustprogress nounwind uwtable
define linkonce_odr hidden noundef i64 @_ZNK11G1EvacStats16direct_allocatedEv(ptr noundef nonnull align 8 dereferenceable(144) %0) #1 comdat align 2 {
  %2 = alloca ptr, align 8
  store ptr %0, ptr %2, align 8
  %3 = load ptr, ptr %2, align 8
  %4 = getelementptr inbounds %class.G1EvacStats, ptr %3, i32 0, i32 7
  %5 = load i64, ptr %4, align 8
  ret i64 %5
}

; Function Attrs: mustprogress nounwind uwtable
define linkonce_odr hidden noundef i64 @_ZNK11G1EvacStats15num_plab_filledEv(ptr noundef nonnull align 8 dereferenceable(144) %0) #1 comdat align 2 {
  %2 = alloca ptr, align 8
  store ptr %0, ptr %2, align 8
  %3 = load ptr, ptr %2, align 8
  %4 = getelementptr inbounds %class.G1EvacStats, ptr %3, i32 0, i32 6
  %5 = load i64, ptr %4, align 8
  ret i64 %5
}

; Function Attrs: mustprogress nounwind uwtable
define linkonce_odr hidden noundef i32 @_ZNK11G1EvacStats14regions_filledEv(ptr noundef nonnull align 8 dereferenceable(144) %0) #1 comdat align 2 {
  %2 = alloca ptr, align 8
  store ptr %0, ptr %2, align 8
  %3 = load ptr, ptr %2, align 8
  %4 = getelementptr inbounds %class.G1EvacStats, ptr %3, i32 0, i32 5
  %5 = load i32, ptr %4, align 8
  ret i32 %5
}

; Function Attrs: mustprogress nounwind uwtable
define linkonce_odr hidden noundef i64 @_ZNK11G1EvacStats16region_end_wasteEv(ptr noundef nonnull align 8 dereferenceable(144) %0) #1 comdat align 2 {
  %2 = alloca ptr, align 8
  store ptr %0, ptr %2, align 8
  %3 = load ptr, ptr %2, align 8
  %4 = getelementptr inbounds %class.G1EvacStats, ptr %3, i32 0, i32 4
  %5 = load i64, ptr %4, align 8
  ret i64 %5
}

; Function Attrs: mustprogress nounwind uwtable
define linkonce_odr hidden noundef i64 @_ZNK9PLABStats4usedEv(ptr noundef nonnull align 8 dereferenceable(48) %0) #1 comdat align 2 {
  %2 = alloca ptr, align 8
  store ptr %0, ptr %2, align 8
  %3 = load ptr, ptr %2, align 8
  %4 = call noundef i64 @_ZNK9PLABStats9allocatedEv(ptr noundef nonnull align 8 dereferenceable(48) %3)
  %5 = call noundef i64 @_ZNK9PLABStats6wastedEv(ptr noundef nonnull align 8 dereferenceable(48) %3)
  %6 = call noundef i64 @_ZNK9PLABStats6unusedEv(ptr noundef nonnull align 8 dereferenceable(48) %3)
  %7 = add i64 %5, %6
  %8 = sub i64 %4, %7
  ret i64 %8
}

; Function Attrs: mustprogress nounwind uwtable
define linkonce_odr hidden noundef i64 @_ZNK9PLABStats6unusedEv(ptr noundef nonnull align 8 dereferenceable(48) %0) #1 comdat align 2 {
  %2 = alloca ptr, align 8
  store ptr %0, ptr %2, align 8
  %3 = load ptr, ptr %2, align 8
  %4 = getelementptr inbounds %class.PLABStats, ptr %3, i32 0, i32 5
  %5 = load i64, ptr %4, align 8
  ret i64 %5
}

; Function Attrs: mustprogress nounwind uwtable
define linkonce_odr hidden noundef i64 @_ZNK9PLABStats11undo_wastedEv(ptr noundef nonnull align 8 dereferenceable(48) %0) #1 comdat align 2 {
  %2 = alloca ptr, align 8
  store ptr %0, ptr %2, align 8
  %3 = load ptr, ptr %2, align 8
  %4 = getelementptr inbounds %class.PLABStats, ptr %3, i32 0, i32 4
  %5 = load i64, ptr %4, align 8
  ret i64 %5
}

; Function Attrs: mustprogress nounwind uwtable
define linkonce_odr hidden noundef i64 @_ZNK9PLABStats6wastedEv(ptr noundef nonnull align 8 dereferenceable(48) %0) #1 comdat align 2 {
  %2 = alloca ptr, align 8
  store ptr %0, ptr %2, align 8
  %3 = load ptr, ptr %2, align 8
  %4 = getelementptr inbounds %class.PLABStats, ptr %3, i32 0, i32 3
  %5 = load i64, ptr %4, align 8
  ret i64 %5
}

; Function Attrs: mustprogress nounwind uwtable
define linkonce_odr hidden noundef i64 @_ZNK9PLABStats9allocatedEv(ptr noundef nonnull align 8 dereferenceable(48) %0) #1 comdat align 2 {
  %2 = alloca ptr, align 8
  store ptr %0, ptr %2, align 8
  %3 = load ptr, ptr %2, align 8
  %4 = getelementptr inbounds %class.PLABStats, ptr %3, i32 0, i32 2
  %5 = load i64, ptr %4, align 8
  ret i64 %5
}

; Function Attrs: mustprogress nounwind uwtable
define hidden void @_ZN15G1CollectedHeap22create_g1_evac_summaryEP11G1EvacStats(ptr dead_on_unwind noalias writable sret(%class.G1EvacSummary) align 8 %0, ptr noundef nonnull align 8 dereferenceable(1488) %1, ptr noundef %2) #1 align 2 {
  %4 = alloca ptr, align 8
  %5 = alloca ptr, align 8
  store ptr %1, ptr %4, align 8
  store ptr %2, ptr %5, align 8
  %6 = load ptr, ptr %5, align 8
  %7 = call noundef i64 @_ZNK9PLABStats9allocatedEv(ptr noundef nonnull align 8 dereferenceable(48) %6)
  %8 = load ptr, ptr %5, align 8
  %9 = call noundef i64 @_ZNK9PLABStats6wastedEv(ptr noundef nonnull align 8 dereferenceable(48) %8)
  %10 = load ptr, ptr %5, align 8
  %11 = call noundef i64 @_ZNK9PLABStats11undo_wastedEv(ptr noundef nonnull align 8 dereferenceable(48) %10)
  %12 = load ptr, ptr %5, align 8
  %13 = call noundef i64 @_ZNK9PLABStats6unusedEv(ptr noundef nonnull align 8 dereferenceable(48) %12)
  %14 = load ptr, ptr %5, align 8
  %15 = call noundef i64 @_ZNK9PLABStats4usedEv(ptr noundef nonnull align 8 dereferenceable(48) %14)
  %16 = load ptr, ptr %5, align 8
  %17 = call noundef i64 @_ZNK11G1EvacStats16region_end_wasteEv(ptr noundef nonnull align 8 dereferenceable(144) %16)
  %18 = load ptr, ptr %5, align 8
  %19 = call noundef i32 @_ZNK11G1EvacStats14regions_filledEv(ptr noundef nonnull align 8 dereferenceable(144) %18)
  %20 = load ptr, ptr %5, align 8
  %21 = call noundef i64 @_ZNK11G1EvacStats15num_plab_filledEv(ptr noundef nonnull align 8 dereferenceable(144) %20)
  %22 = load ptr, ptr %5, align 8
  %23 = call noundef i64 @_ZNK11G1EvacStats16direct_allocatedEv(ptr noundef nonnull align 8 dereferenceable(144) %22)
  %24 = load ptr, ptr %5, align 8
  %25 = call noundef i64 @_ZNK11G1EvacStats20num_direct_allocatedEv(ptr noundef nonnull align 8 dereferenceable(144) %24)
  %26 = load ptr, ptr %5, align 8
  %27 = call noundef i64 @_ZNK11G1EvacStats12failure_usedEv(ptr noundef nonnull align 8 dereferenceable(144) %26)
  %28 = load ptr, ptr %5, align 8
  %29 = call noundef i64 @_ZNK11G1EvacStats13failure_wasteEv(ptr noundef nonnull align 8 dereferenceable(144) %28)
  call void @_ZN13G1EvacSummaryC2Emmmmmmjmmmmm(ptr noundef nonnull align 8 dereferenceable(96) %0, i64 noundef %7, i64 noundef %9, i64 noundef %11, i64 noundef %13, i64 noundef %15, i64 noundef %17, i32 noundef %19, i64 noundef %21, i64 noundef %23, i64 noundef %25, i64 noundef %27, i64 noundef %29)
  ret void
}