; Function Attrs: mustprogress nofree norecurse nosync nounwind willreturn memory(argmem: readwrite) uwtable
define hidden void @_ZN15G1CollectedHeap22create_g1_evac_summaryEP11G1EvacStats(ptr dead_on_unwind noalias nocapture writable writeonly sret(%class.G1EvacSummary) align 8 %0, ptr nocapture noundef nonnull readnone align 8 dereferenceable(1488) %1, ptr nocapture noundef readonly %2) local_unnamed_addr #12 align 2 {
  %4 = getelementptr inbounds i8, ptr %2, i64 16
  %5 = load i64, ptr %4, align 8
  %6 = getelementptr inbounds i8, ptr %2, i64 24
  %7 = getelementptr inbounds i8, ptr %2, i64 40
  %8 = load i64, ptr %7, align 8
  %9 = getelementptr inbounds i8, ptr %2, i64 88
  %10 = load i64, ptr %9, align 8
  %11 = getelementptr inbounds i8, ptr %2, i64 96
  %12 = load i32, ptr %11, align 8
  %13 = getelementptr inbounds i8, ptr %2, i64 104
  %14 = getelementptr inbounds i8, ptr %2, i64 120
  %15 = getelementptr inbounds i8, ptr %2, i64 136
  %16 = load i64, ptr %15, align 8
  store i64 %5, ptr %0, align 8
  %17 = getelementptr inbounds i8, ptr %0, i64 8
  %18 = load <2 x i64>, ptr %6, align 8
  %19 = extractelement <2 x i64> %18, i64 0
  %20 = add i64 %19, %8
  %21 = sub i64 %5, %20
  store <2 x i64> %18, ptr %17, align 8
  %22 = getelementptr inbounds i8, ptr %0, i64 24
  store i64 %8, ptr %22, align 8
  %23 = getelementptr inbounds i8, ptr %0, i64 32
  store i64 %21, ptr %23, align 8
  %24 = getelementptr inbounds i8, ptr %0, i64 40
  store i64 %10, ptr %24, align 8
  %25 = getelementptr inbounds i8, ptr %0, i64 48
  store i32 %12, ptr %25, align 8
  %26 = getelementptr inbounds i8, ptr %0, i64 56
  %27 = load <2 x i64>, ptr %13, align 8
  store <2 x i64> %27, ptr %26, align 8
  %28 = getelementptr inbounds i8, ptr %0, i64 72
  %29 = load <2 x i64>, ptr %14, align 8
  store <2 x i64> %29, ptr %28, align 8
  %30 = getelementptr inbounds i8, ptr %0, i64 88
  store i64 %16, ptr %30, align 8
  ret void
}